(lp0
(dp1
S'q_zero'
p2
(dp3
S'other'
p4
F9.99999000001e-07
sS'NNP'
p5
F0.9999990000010001
ssS'NN'
p6
(dp7
g4
F9.99999000001e-07
sS'q_final'
p8
F0.9999990000010001
ssS'JJ'
p9
(dp10
g4
F9.99999000001e-07
sg6
F0.9999990000010001
ssS'VBZ'
p11
(dp12
S'DT'
p13
F0.9999990000010001
sg4
F9.99999000001e-07
ssg13
(dp14
g4
F9.99999000001e-07
sg9
F0.9999990000010001
ssg5
(dp15
g11
F0.9999990000010001
sg4
F9.99999000001e-07
ssa(dp16
g2
(dp17
S'<unknown>'
p18
F9.99999000001e-07
sS'q_zero'
p19
F0.9999990000010001
ssg6
(dp20
g18
F9.99999000001e-07
sS'producer'
p21
F0.9999990000010001
ssg9
(dp22
g18
F9.99999000001e-07
sS'third-largest'
p23
F0.9999990000010001
ssg11
(dp24
g18
F9.99999000001e-07
sS'is'
p25
F0.9999990000010001
ssg13
(dp26
g18
F9.99999000001e-07
sS'the'
p27
F0.9999990000010001
ssg5
(dp28
S'Brazil'
p29
F0.9999990000010001
sg18
F9.99999000001e-07
ssa(lp30
g6
ag9
ag11
ag13
ag5
aaccopy_reg
_reconstructor
p31
(csets
Set
p32
c__builtin__
object
p33
Ntp34
Rp35
((dp36
g29
I01
sg19
I01
sg21
I01
sg25
I01
sg23
I01
sg27
I01
stp37
ba.