(lp0
(dp1
S'PRP$'
p2
(dp3
S'NNS'
p4
F0.2
sS'NN'
p5
F0.2
sS'CD'
p6
F0.6
ssS'q_zero'
p7
(dp8
S'``'
p9
F0.3333333333333333
sS'NNP'
p10
F0.3333333333333333
sS'IN'
p11
F0.3333333333333333
ssS'VBD'
p12
(dp13
S'VBG'
p14
F0.038461538461538464
sS'VBN'
p15
F0.5384615384615384
sS','
p16
F0.038461538461538464
sS'JJ'
p17
F0.038461538461538464
sS'IN'
p18
F0.038461538461538464
sS'DT'
p19
F0.07692307692307693
sS'.'
p20
F0.07692307692307693
sS'NNP'
p21
F0.15384615384615385
ssg15
(dp22
S'RBR'
p23
F0.043478260869565216
sg20
F0.08695652173913043
sS"''"
p24
F0.043478260869565216
sS'TO'
p25
F0.43478260869565216
sS'VBN'
p26
F0.17391304347826086
sS'DT'
p27
F0.13043478260869565
sg16
F0.08695652173913043
ssg16
(dp28
S'MD'
p29
F0.02702702702702703
sS'``'
p30
F0.02702702702702703
sS'NN'
p31
F0.10810810810810811
sS'VBD'
p32
F0.05405405405405406
sS'CC'
p33
F0.05405405405405406
sS'CD'
p34
F0.05405405405405406
sS"''"
p35
F0.10810810810810811
sS'IN'
p36
F0.08108108108108109
sS'VBZ'
p37
F0.08108108108108109
sS'DT'
p38
F0.1891891891891892
sS'NNS'
p39
F0.05405405405405406
sS'NNP'
p40
F0.16216216216216217
ssg35
(dp41
S'DT'
p42
F0.16666666666666666
sS'NN'
p43
F0.16666666666666666
sS'VBD'
p44
F0.6666666666666666
ssS'VBP'
p45
(dp46
S'DT'
p47
F0.125
sS'VBG'
p48
F0.125
sS'IN'
p49
F0.75
ssS'WDT'
p50
(dp51
S'VBZ'
p52
F0.2
sg45
F0.8
ssS'JJ'
p53
(dp54
S'NN'
p55
F0.53125
sS'CC'
p56
F0.03125
sg16
F0.125
sS'TO'
p57
F0.03125
sS'JJ'
p58
F0.0625
sS'IN'
p59
F0.0625
sS'NNS'
p60
F0.125
sS'NNP'
p61
F0.03125
ssS'WP'
p62
(dp63
S'VBD'
p64
F1.0
ssS'VBG'
p65
(dp66
S'DT'
p67
F0.14285714285714285
sS'NNS'
p68
F0.14285714285714285
sS'JJR'
p69
F0.2857142857142857
sS'NN'
p70
F0.2857142857142857
sS'IN'
p71
F0.14285714285714285
ssS'DT'
p72
(dp73
g53
F0.26785714285714285
sS'NN'
p74
F0.4107142857142857
sS'JJS'
p75
F0.05357142857142857
sS'RBR'
p76
F0.03571428571428571
sS'CD'
p77
F0.05357142857142857
sS'RB'
p78
F0.017857142857142856
sS'VBZ'
p79
F0.017857142857142856
sS'NNS'
p80
F0.05357142857142857
sS'NNP'
p81
F0.08928571428571429
ssg55
(dp82
S'VBG'
p83
F0.012048192771084338
sS'RB'
p84
F0.012048192771084338
sS'NN'
p85
F0.0963855421686747
sg12
F0.04819277108433735
sS'CC'
p86
F0.060240963855421686
sS'POS'
p87
F0.012048192771084338
sg16
F0.1686746987951807
sS'TO'
p88
F0.08433734939759036
sS'JJ'
p89
F0.012048192771084338
sS'IN'
p90
F0.3493975903614458
sg20
F0.08433734939759036
sS'NNS'
p91
F0.04819277108433735
sS'NNP'
p92
F0.012048192771084338
ssg87
(dp93
S'NNP'
p94
F1.0
ssg20
(dp95
S'``'
p96
F0.08333333333333333
sg2
F0.125
sS"''"
p97
F0.041666666666666664
sS'q_final'
p98
F0.25
sS'PRP'
p99
F0.041666666666666664
sS'IN'
p100
F0.041666666666666664
sS'DT'
p101
F0.20833333333333334
sS'NNP'
p102
F0.16666666666666666
sS'EX'
p103
F0.041666666666666664
ssg88
(dp104
g65
F0.10526315789473684
sS'VB'
p105
F0.5789473684210527
sS'NNS'
p106
F0.15789473684210525
sS'PRP'
p107
F0.10526315789473684
sS'DT'
p108
F0.05263157894736842
ssS'PRP'
p109
(dp110
S'VBZ'
p111
F0.5
sS'VBP'
p112
F0.25
sS'VBG'
p113
F0.125
sS'RBR'
p114
F0.125
ssg78
(dp115
S'DT'
p116
F0.16666666666666666
sS'RB'
p117
F0.16666666666666666
sS'VBN'
p118
F0.16666666666666666
sS'JJ'
p119
F0.3333333333333333
sg20
F0.16666666666666666
ssS'NNS'
p120
(dp121
S'JJ'
p122
F0.061224489795918366
sS'VBD'
p123
F0.1836734693877551
sS'IN'
p124
F0.4489795918367347
sg16
F0.04081632653061224
sS'VBN'
p125
F0.02040816326530612
sS'TO'
p126
F0.02040816326530612
sS'VBP'
p127
F0.04081632653061224
sg50
F0.08163265306122448
sS'RB'
p128
F0.02040816326530612
sg62
F0.02040816326530612
sS'VBZ'
p129
F0.02040816326530612
sg20
F0.04081632653061224
ssg10
(dp130
S'VBG'
p131
F0.014492753623188406
sS'NN'
p132
F0.028985507246376812
sS'VBD'
p133
F0.057971014492753624
sS'CC'
p134
F0.043478260869565216
sg16
F0.17391304347826086
sS'POS'
p135
F0.014492753623188406
sg20
F0.07246376811594203
sS'WDT'
p136
F0.014492753623188406
sS'IN'
p137
F0.028985507246376812
sS'VBZ'
p138
F0.043478260869565216
sS'CD'
p139
F0.014492753623188406
sS'NNS'
p140
F0.028985507246376812
sS'NNP'
p141
F0.463768115942029
ssg9
(dp142
S'DT'
p143
F0.16666666666666666
sS'NNS'
p144
F0.16666666666666666
sg109
F0.6666666666666666
ssg86
(dp145
S'DT'
p146
F0.6363636363636364
sS'JJR'
p147
F0.18181818181818182
sS'JJ'
p148
F0.09090909090909091
sS'NNP'
p149
F0.09090909090909091
ssg76
(dp150
S'JJ'
p151
F0.5
sS'IN'
p152
F0.5
ssS'CD'
p153
(dp154
S'CD'
p155
F0.2571428571428571
sg120
F0.6
sg20
F0.14285714285714285
ssg103
(dp156
S'VBZ'
p157
F1.0
ssg90
(dp158
S'PRP$'
p159
F0.02702702702702703
sS'JJ'
p160
F0.05405405405405406
sS'NN'
p161
F0.22972972972972974
sS'VBD'
p162
F0.02702702702702703
sg16
F0.02702702702702703
sS'CD'
p163
F0.14864864864864866
sg98
F0.04054054054054054
sS'PRP'
p164
F0.013513513513513514
sS'RB'
p165
F0.013513513513513514
sS'IN'
p166
F0.02702702702702703
sS'DT'
p167
F0.20270270270270271
sS'NNS'
p168
F0.08108108108108109
sS'NNP'
p169
F0.10810810810810811
ssg29
(dp170
S'VB'
p171
F1.0
ssg75
(dp172
S'NNS'
p173
F0.3333333333333333
sS'NN'
p174
F0.6666666666666666
ssg69
(dp175
S'NN'
p176
F1.0
ssg105
(dp177
S'NN'
p178
F0.08333333333333333
sS'VBN'
p179
F0.16666666666666666
sg153
F0.5
sS'JJ'
p180
F0.08333333333333333
sS'DT'
p181
F0.08333333333333333
sS'NNP'
p182
F0.08333333333333333
ssg98
(dp183
S'q_zero'
p184
F1.0
ssg138
(dp185
g72
F0.7142857142857143
sS'NN'
p186
F0.07142857142857142
sS'VBN'
p187
F0.07142857142857142
sS'RB'
p188
F0.07142857142857142
sS'NNP'
p189
F0.07142857142857142
ssa(dp190
g2
(dp191
S'our'
p192
F0.2
sS'Its'
p193
F0.6
sS'its'
p194
F0.2
ssg7
(dp195
S'q_zero'
p196
F1.0
ssg12
(dp197
S'said'
p198
F0.11538461538461539
sS'led'
p199
F0.038461538461538464
sS'reported'
p200
F0.038461538461538464
sS'explained'
p201
F0.11538461538461539
sS'had'
p202
F0.15384615384615385
sS'heard'
p203
F0.038461538461538464
sS'were'
p204
F0.2692307692307692
sS'stopped'
p205
F0.038461538461538464
sS'studied'
p206
F0.038461538461538464
sS'was'
p207
F0.15384615384615385
ssg105
(dp208
S'be'
p209
F0.08333333333333333
sS'join'
p210
F0.08333333333333333
sS'make'
p211
F0.08333333333333333
sS'bring'
p212
F0.08333333333333333
sS'produce'
p213
F0.25
sS'have'
p214
F0.08333333333333333
sS'ship'
p215
F0.08333333333333333
sS'total'
p216
F0.25
ssg16
(dp217
g16
F1.0
ssg35
(dp218
S"''"
p219
F1.0
ssg45
(dp220
S'show'
p221
F0.125
sS"'re"
p222
F0.125
sS'appear'
p223
F0.125
sS'have'
p224
F0.125
sS'are'
p225
F0.5
ssg50
(dp226
S'that'
p227
F1.0
ssg53
(dp228
S'industrial'
p229
F0.03125
sS'old'
p230
F0.09375
sS'preliminary'
p231
F0.03125
sS'nonexecutive'
p232
F0.0625
sS'high'
p233
F0.03125
sS'likely'
p234
F0.03125
sS'New'
p235
F0.03125
sS'useful'
p236
F0.03125
sS'brief'
p237
F0.03125
sS'current'
p238
F0.09375
sS'resilient'
p239
F0.03125
sS'fifth-largest'
p240
F0.0625
sS'questionable'
p241
F0.03125
sS'British'
p242
F0.03125
sS'aware'
p243
F0.03125
sS'York-based'
p244
F0.03125
sS'new'
p245
F0.03125
sS'drastic'
p246
F0.0625
sS'true'
p247
F0.0625
sS'former'
p248
F0.03125
sS'medical'
p249
F0.03125
sS'later'
p250
F0.03125
sS'third-largest'
p251
F0.0625
ssg62
(dp252
S'who'
p253
F1.0
ssg65
(dp254
S'publishing'
p255
F0.14285714285714285
sS'talking'
p256
F0.14285714285714285
sS'causing'
p257
F0.14285714285714285
sS'using'
p258
F0.14285714285714285
sS'producing'
p259
F0.2857142857142857
sS'having'
p260
F0.14285714285714285
ssg72
(dp261
S'A'
p262
F0.07142857142857142
sS'a'
p263
F0.21428571428571427
sS'no'
p264
F0.03571428571428571
sS'This'
p265
F0.017857142857142856
sS'the'
p266
F0.42857142857142855
sS'this'
p267
F0.08928571428571429
sS'an'
p268
F0.017857142857142856
sS'The'
p269
F0.017857142857142856
sS'these'
p270
F0.05357142857142857
sS'Neither'
p271
F0.017857142857142856
sS'any'
p272
F0.03571428571428571
ssg55
(dp273
S'world'
p274
F0.024096385542168676
sS'cancer'
p275
F0.012048192771084338
sS'crop'
p276
F0.07228915662650602
sS'exporter'
p277
F0.024096385542168676
sS'export'
p278
F0.012048192771084338
sS'year'
p279
F0.0963855421686747
sS'sugar'
p280
F0.0963855421686747
sS'unit'
p281
F0.012048192771084338
sS'information'
p282
F0.012048192771084338
sS'story'
p283
F0.012048192771084338
sS'group'
p284
F0.024096385542168676
sS'producer'
p285
F0.024096385542168676
sS'question'
p286
F0.03614457831325301
sS'research'
p287
F0.012048192771084338
sS'anyone'
p288
F0.012048192771084338
sS'board'
p289
F0.012048192771084338
sS'percentage'
p290
F0.012048192771084338
sS'contrast'
p291
F0.03614457831325301
sS'chairman'
p292
F0.024096385542168676
sS'fiber'
p293
F0.012048192771084338
sS'risk'
p294
F0.012048192771084338
sS'form'
p295
F0.012048192771084338
sS'asbestos'
p296
F0.04819277108433735
sS'attention'
p297
F0.012048192771084338
sS'yesterday'
p298
F0.012048192771084338
sS'conglomerate'
p299
F0.012048192771084338
sS'cigarette'
p300
F0.024096385542168676
sS'Micronite'
p301
F0.012048192771084338
sS'news'
p302
F0.024096385542168676
sS'analyst'
p303
F0.03614457831325301
sS'alcohol'
p304
F0.024096385542168676
sS'director'
p305
F0.024096385542168676
sS'today'
p306
F0.012048192771084338
sS'forum'
p307
F0.012048192771084338
sS'shift'
p308
F0.04819277108433735
sS'drop'
p309
F0.03614457831325301
sS'spokewoman'
p310
F0.012048192771084338
sS'crocidolite'
p311
F0.024096385542168676
sS'team'
p312
F0.012048192771084338
sS'problem'
p313
F0.012048192771084338
ssg87
(dp314
S"'s"
p315
F1.0
ssg20
(dp316
g20
F1.0
ssg88
(dp317
S'to'
p318
F1.0
ssg109
(dp319
S'We'
p320
F0.25
sS'It'
p321
F0.375
sS'it'
p322
F0.375
ssg78
(dp323
S'even'
p324
F0.16666666666666666
sS'right'
p325
F0.16666666666666666
sS'earlier'
p326
F0.16666666666666666
sS'unusually'
p327
F0.16666666666666666
sS'now'
p328
F0.16666666666666666
sS'once'
p329
F0.16666666666666666
ssg120
(dp330
S'findings'
p331
F0.02040816326530612
sS'deaths'
p332
F0.02040816326530612
sS'results'
p333
F0.02040816326530612
sS'years'
p334
F0.08163265306122448
sS'tons'
p335
F0.30612244897959184
sS'filters'
p336
F0.04081632653061224
sS'licenses'
p337
F0.02040816326530612
sS'Producers'
p338
F0.02040816326530612
sS'workers'
p339
F0.04081632653061224
sS'symptoms'
p340
F0.02040816326530612
sS'decades'
p341
F0.02040816326530612
sS'exposures'
p342
F0.02040816326530612
sS'shipments'
p343
F0.061224489795918366
sS'exports'
p344
F0.061224489795918366
sS'users'
p345
F0.02040816326530612
sS'lungs'
p346
F0.02040816326530612
sS'schools'
p347
F0.02040816326530612
sS'properties'
p348
F0.02040816326530612
sS'cigarettes'
p349
F0.04081632653061224
sS'products'
p350
F0.02040816326530612
sS'smokers'
p351
F0.02040816326530612
sS'researchers'
p352
F0.08163265306122448
ssg10
(dp353
S'Brazil'
p354
F0.07246376811594203
sS'Dutch'
p355
F0.014492753623188406
sS'Lorillard'
p356
F0.043478260869565216
sS'Lehman'
p357
F0.043478260869565216
sS'Rudolph'
p358
F0.014492753623188406
sS'Hutton'
p359
F0.043478260869565216
sS'Mr.'
p360
F0.014492753623188406
sS'Kent'
p361
F0.043478260869565216
sS'Dr.'
p362
F0.014492753623188406
sS'Medicine'
p363
F0.014492753623188406
sS'New'
p364
F0.057971014492753624
sS'Judith'
p365
F0.043478260869565216
sS'Journal'
p366
F0.014492753623188406
sS'Vinken'
p367
F0.028985507246376812
sS'A.'
p368
F0.014492753623188406
sS'Harvard'
p369
F0.014492753623188406
sS'York'
p370
F0.043478260869565216
sS'Fields'
p371
F0.014492753623188406
sS'Corp.'
p372
F0.014492753623188406
sS'Nov.'
p373
F0.014492753623188406
sS'Loews'
p374
F0.014492753623188406
sS'Institute'
p375
F0.028985507246376812
sS'James'
p376
F0.014492753623188406
sS'University'
p377
F0.028985507246376812
sS'Talcott'
p378
F0.028985507246376812
sS'Dana-Farber'
p379
F0.014492753623188406
sS'N.V.'
p380
F0.014492753623188406
sS'Agnew'
p381
F0.014492753623188406
sS'Inc.'
p382
F0.014492753623188406
sS'England'
p383
F0.014492753623188406
sS'Gold'
p384
F0.014492753623188406
sS'Cancer'
p385
F0.028985507246376812
sS'Consolidated'
p386
F0.014492753623188406
sS'National'
p387
F0.014492753623188406
sS'Pierre'
p388
F0.014492753623188406
sS'Ganes'
p389
F0.043478260869565216
sS'PLC'
p390
F0.014492753623188406
sS'Boston'
p391
F0.028985507246376812
sS'Elsevier'
p392
F0.014492753623188406
sS'Shearson'
p393
F0.043478260869565216
ssg9
(dp394
S'``'
p395
F1.0
ssg86
(dp396
S'and'
p397
F0.7272727272727273
sS'but'
p398
F0.18181818181818182
sS'nor'
p399
F0.09090909090909091
ssg76
(dp400
S'more'
p401
F1.0
ssg15
(dp402
S'named'
p403
F0.043478260869565216
sS'used'
p404
F0.043478260869565216
sS'exposed'
p405
F0.043478260869565216
sS'issued'
p406
F0.043478260869565216
sS'granted'
p407
F0.043478260869565216
sS'been'
p408
F0.17391304347826086
sS'anticipated'
p409
F0.08695652173913043
sS'reported'
p410
F0.043478260869565216
sS'begun'
p411
F0.043478260869565216
sS'caused'
p412
F0.043478260869565216
sS'expected'
p413
F0.391304347826087
ssg103
(dp414
S'There'
p415
F1.0
ssg90
(dp416
S'ago'
p417
F0.04054054054054054
sS'among'
p418
F0.013513513513513514
sS'about'
p419
F0.013513513513513514
sS'from'
p420
F0.05405405405405406
sS'for'
p421
F0.08108108108108109
sS'on'
p422
F0.02702702702702703
sS'whether'
p423
F0.013513513513513514
sS'of'
p424
F0.2972972972972973
sS'up'
p425
F0.013513513513513514
sS'as'
p426
F0.013513513513513514
sS'if'
p427
F0.02702702702702703
sS'at'
p428
F0.013513513513513514
sS'Although'
p429
F0.013513513513513514
sS'in'
p430
F0.24324324324324326
sS'During'
p431
F0.04054054054054054
sS'once'
p432
F0.013513513513513514
sS'with'
p433
F0.013513513513513514
sS'than'
p434
F0.05405405405405406
sS'before'
p435
F0.013513513513513514
ssg153
(dp436
S'8.1'
p437
F0.08571428571428572
sS'1989-90'
p438
F0.08571428571428572
sS'million'
p439
F0.2571428571428571
sS'645,000'
p440
F0.17142857142857143
sS'1.5'
p441
F0.08571428571428572
sS'55'
p442
F0.02857142857142857
sS'30'
p443
F0.02857142857142857
sS'29'
p444
F0.02857142857142857
sS'61'
p445
F0.02857142857142857
sS'1956'
p446
F0.02857142857142857
sS'1988-89'
p447
F0.08571428571428572
sS'6.9'
p448
F0.08571428571428572
ssg29
(dp449
S'will'
p450
F1.0
ssg75
(dp451
S'latest'
p452
F1.0
ssg69
(dp453
S'more'
p454
F0.5
sS'less'
p455
F0.5
ssg138
(dp456
S'indicates'
p457
F0.14285714285714285
sS'is'
p458
F0.6428571428571429
sS'has'
p459
F0.07142857142857142
sS'makes'
p460
F0.07142857142857142
sS'enters'
p461
F0.07142857142857142
ssa(lp462
g2
ag7
ag12
ag62
ag9
ag15
ag87
ag35
ag45
ag50
ag53
ag138
ag65
ag72
ag55
ag16
ag20
ag88
ag109
ag78
ag120
ag10
ag105
ag86
ag76
ag153
ag103
ag90
ag29
ag75
ag69
ag98
aaccopy_reg
_reconstructor
p463
(csets
Set
p464
c__builtin__
object
p465
Ntp466
Rp467
((dp468
g362
I01
sg379
I01
sg285
I01
sg455
I01
sg406
I01
sg333
I01
sg334
I01
sg212
I01
sg361
I01
sg258
I01
sg365
I01
sg194
I01
sg448
I01
sg211
I01
sg238
I01
sg320
I01
sg461
I01
sg284
I01
sg259
I01
sg339
I01
sg221
I01
sg202
I01
sg16
I01
sg280
I01
sg340
I01
sg318
I01
sg370
I01
sg429
I01
sg412
I01
sg391
I01
sg459
I01
sg341
I01
sg344
I01
sg415
I01
sg294
I01
sg434
I01
sg374
I01
sg296
I01
sg376
I01
sg409
I01
sg203
I01
sg446
I01
sg423
I01
sg356
I01
sg245
I01
sg347
I01
sg274
I01
sg328
I01
sg260
I01
sg399
I01
sg440
I01
sg385
I01
sg442
I01
sg309
I01
sg310
I01
sg267
I01
sg205
I01
sg312
I01
sg447
I01
sg438
I01
sg262
I01
sg325
I01
sg230
I01
sg336
I01
sg331
I01
sg373
I01
sg276
I01
sg425
I01
sg359
I01
sg234
I01
sg404
I01
sg278
I01
sg225
I01
sg411
I01
sg279
I01
sg337
I01
sg364
I01
sg271
I01
sg324
I01
sg198
I01
sg304
I01
sg421
I01
sg251
I01
sg367
I01
sg287
I01
sg338
I01
sg375
I01
sg237
I01
sg369
I01
sg239
I01
sg431
I01
sg435
I01
sg291
I01
sg209
I01
sg293
I01
sg199
I01
sg265
I01
sg377
I01
sg439
I01
sg299
I01
sg200
I01
sg378
I01
sg302
I01
sg381
I01
sg348
I01
sg422
I01
sg419
I01
sg307
I01
sg424
I01
sg387
I01
sg443
I01
sg360
I01
sg350
I01
sg351
I01
sg392
I01
sg460
I01
sg366
I01
sg354
I01
sg418
I01
sg403
I01
sg229
I01
sg236
I01
sg275
I01
sg357
I01
sg201
I01
sg444
I01
sg445
I01
sg335
I01
sg363
I01
sg216
I01
sg281
I01
sg437
I01
sg283
I01
sg420
I01
sg255
I01
sg405
I01
sg286
I01
sg408
I01
sg20
I01
sg288
I01
sg380
I01
sg413
I01
sg290
I01
sg207
I01
sg311
I01
sg454
I01
sg241
I01
sg417
I01
sg395
I01
sg358
I01
sg295
I01
sg227
I01
sg433
I01
sg398
I01
sg243
I01
sg248
I01
sg301
I01
sg268
I01
sg247
I01
sg303
I01
sg382
I01
sg233
I01
sg210
I01
sg384
I01
sg256
I01
sg270
I01
sg386
I01
sg289
I01
sg389
I01
sg450
I01
sg222
I01
sg390
I01
sg306
I01
sg297
I01
sg204
I01
sg327
I01
sg313
I01
sg342
I01
sg397
I01
sg441
I01
sg206
I01
sg196
I01
sg332
I01
sg458
I01
sg355
I01
sg322
I01
sg388
I01
sg219
I01
sg457
I01
sg426
I01
sg428
I01
sg214
I01
sg430
I01
sg244
I01
sg215
I01
sg308
I01
sg272
I01
sg427
I01
sg282
I01
sg346
I01
sg264
I01
sg407
I01
sg232
I01
sg253
I01
sg368
I01
sg383
I01
sg257
I01
sg292
I01
sg240
I01
sg372
I01
sg343
I01
sg277
I01
sg315
I01
sg345
I01
sg192
I01
sg371
I01
sg326
I01
sg298
I01
sg242
I01
sg305
I01
sg300
I01
sg213
I01
sg231
I01
sg246
I01
sg269
I01
sg223
I01
sg263
I01
sg249
I01
sg250
I01
sg321
I01
sg393
I01
sg349
I01
sg266
I01
sg329
I01
sg193
I01
sg352
I01
sg452
I01
stp469
ba.